target datalayout = "e-m:e-p270:32:32-p271:32:32-p272:64:64-i64:64-i128:128-f80:128-n8:16:32:64-S128"
target triple = "x86_64-unknown-linux-gnu"

%"struct.node::AssertionInfo" = type { ptr, ptr, ptr }
%"class.node::crypto::NodeBIO" = type { %"class.node::MemoryRetainer", ptr, i64, i64, i64, i32, ptr, ptr }
%"class.node::MemoryRetainer" = type { ptr }
%"class.node::crypto::NodeBIO::Buffer" = type { ptr, i64, i64, i64, ptr, ptr }

@_ZZN4node6crypto7NodeBIO5ResetEvE4args = internal constant %"struct.node::AssertionInfo" { ptr @.str.30, ptr @.str.31, ptr @.str.32 }, align 8
@_ZZN4node6crypto7NodeBIO5ResetEvE4args_0 = internal constant %"struct.node::AssertionInfo" { ptr @.str.33, ptr @.str.34, ptr @.str.32 }, align 8

; Function Attrs: mustprogress nounwind uwtable
define dso_local void @_ZN4node6crypto7NodeBIO5ResetEv(ptr noundef nonnull align 8 dereferenceable(64) %this) #4 align 2 {
entry:
  %this.addr = alloca ptr, align 8
  store ptr %this, ptr %this.addr, align 8
  %this1 = load ptr, ptr %this.addr, align 8
  %read_head_ = getelementptr inbounds %"class.node::crypto::NodeBIO", ptr %this1, i32 0, i32 6
  %0 = load ptr, ptr %read_head_, align 8
  %cmp = icmp eq ptr %0, null
  br i1 %cmp, label %if.then, label %if.end

if.then:                                          ; preds = %entry
  br label %do.end38

if.end:                                           ; preds = %entry
  br label %while.cond

while.cond:                                       ; preds = %do.end15, %if.end
  %read_head_2 = getelementptr inbounds %"class.node::crypto::NodeBIO", ptr %this1, i32 0, i32 6
  %1 = load ptr, ptr %read_head_2, align 8
  %read_pos_ = getelementptr inbounds %"class.node::crypto::NodeBIO::Buffer", ptr %1, i32 0, i32 1
  %2 = load i64, ptr %read_pos_, align 8
  %read_head_3 = getelementptr inbounds %"class.node::crypto::NodeBIO", ptr %this1, i32 0, i32 6
  %3 = load ptr, ptr %read_head_3, align 8
  %write_pos_ = getelementptr inbounds %"class.node::crypto::NodeBIO::Buffer", ptr %3, i32 0, i32 2
  %4 = load i64, ptr %write_pos_, align 8
  %cmp4 = icmp ne i64 %2, %4
  br i1 %cmp4, label %while.body, label %while.end

while.body:                                       ; preds = %while.cond
  br label %do.body

do.body:                                          ; preds = %while.body
  %read_head_5 = getelementptr inbounds %"class.node::crypto::NodeBIO", ptr %this1, i32 0, i32 6
  %5 = load ptr, ptr %read_head_5, align 8
  %write_pos_6 = getelementptr inbounds %"class.node::crypto::NodeBIO::Buffer", ptr %5, i32 0, i32 2
  %6 = load i64, ptr %write_pos_6, align 8
  %read_head_7 = getelementptr inbounds %"class.node::crypto::NodeBIO", ptr %this1, i32 0, i32 6
  %7 = load ptr, ptr %read_head_7, align 8
  %read_pos_8 = getelementptr inbounds %"class.node::crypto::NodeBIO::Buffer", ptr %7, i32 0, i32 1
  %8 = load i64, ptr %read_pos_8, align 8
  %cmp9 = icmp ugt i64 %6, %8
  %lnot = xor i1 %cmp9, true
  %lnot10 = xor i1 %lnot, true
  %lnot11 = xor i1 %lnot10, true
  br i1 %lnot11, label %if.then12, label %if.end14

if.then12:                                        ; preds = %do.body
  br label %do.body13

do.body13:                                        ; preds = %if.then12
  call void @_ZN4node6AssertERKNS_13AssertionInfoE(ptr noundef nonnull align 8 dereferenceable(24) @_ZZN4node6crypto7NodeBIO5ResetEvE4args)
  call void @abort() #12
  unreachable

do.end:                                           ; No predecessors!
  br label %if.end14

if.end14:                                         ; preds = %do.end, %do.body
  br label %do.end15

do.end15:                                         ; preds = %if.end14
  %read_head_16 = getelementptr inbounds %"class.node::crypto::NodeBIO", ptr %this1, i32 0, i32 6
  %9 = load ptr, ptr %read_head_16, align 8
  %write_pos_17 = getelementptr inbounds %"class.node::crypto::NodeBIO::Buffer", ptr %9, i32 0, i32 2
  %10 = load i64, ptr %write_pos_17, align 8
  %read_head_18 = getelementptr inbounds %"class.node::crypto::NodeBIO", ptr %this1, i32 0, i32 6
  %11 = load ptr, ptr %read_head_18, align 8
  %read_pos_19 = getelementptr inbounds %"class.node::crypto::NodeBIO::Buffer", ptr %11, i32 0, i32 1
  %12 = load i64, ptr %read_pos_19, align 8
  %sub = sub i64 %10, %12
  %length_ = getelementptr inbounds %"class.node::crypto::NodeBIO", ptr %this1, i32 0, i32 3
  %13 = load i64, ptr %length_, align 8
  %sub20 = sub i64 %13, %sub
  store i64 %sub20, ptr %length_, align 8
  %read_head_21 = getelementptr inbounds %"class.node::crypto::NodeBIO", ptr %this1, i32 0, i32 6
  %14 = load ptr, ptr %read_head_21, align 8
  %write_pos_22 = getelementptr inbounds %"class.node::crypto::NodeBIO::Buffer", ptr %14, i32 0, i32 2
  store i64 0, ptr %write_pos_22, align 8
  %read_head_23 = getelementptr inbounds %"class.node::crypto::NodeBIO", ptr %this1, i32 0, i32 6
  %15 = load ptr, ptr %read_head_23, align 8
  %read_pos_24 = getelementptr inbounds %"class.node::crypto::NodeBIO::Buffer", ptr %15, i32 0, i32 1
  store i64 0, ptr %read_pos_24, align 8
  %read_head_25 = getelementptr inbounds %"class.node::crypto::NodeBIO", ptr %this1, i32 0, i32 6
  %16 = load ptr, ptr %read_head_25, align 8
  %next_ = getelementptr inbounds %"class.node::crypto::NodeBIO::Buffer", ptr %16, i32 0, i32 4
  %17 = load ptr, ptr %next_, align 8
  %read_head_26 = getelementptr inbounds %"class.node::crypto::NodeBIO", ptr %this1, i32 0, i32 6
  store ptr %17, ptr %read_head_26, align 8
  br label %while.cond, !llvm.loop !12

while.end:                                        ; preds = %while.cond
  %read_head_27 = getelementptr inbounds %"class.node::crypto::NodeBIO", ptr %this1, i32 0, i32 6
  %18 = load ptr, ptr %read_head_27, align 8
  %write_head_ = getelementptr inbounds %"class.node::crypto::NodeBIO", ptr %this1, i32 0, i32 7
  store ptr %18, ptr %write_head_, align 8
  br label %do.body28

do.body28:                                        ; preds = %while.end
  %length_29 = getelementptr inbounds %"class.node::crypto::NodeBIO", ptr %this1, i32 0, i32 3
  %19 = load i64, ptr %length_29, align 8
  %cmp30 = icmp eq i64 %19, 0
  %lnot31 = xor i1 %cmp30, true
  %lnot32 = xor i1 %lnot31, true
  %lnot33 = xor i1 %lnot32, true
  br i1 %lnot33, label %if.then34, label %if.end37

if.then34:                                        ; preds = %do.body28
  br label %do.body35

do.body35:                                        ; preds = %if.then34
  call void @_ZN4node6AssertERKNS_13AssertionInfoE(ptr noundef nonnull align 8 dereferenceable(24) @_ZZN4node6crypto7NodeBIO5ResetEvE4args_0)
  call void @abort() #12
  unreachable

do.end36:                                         ; No predecessors!
  br label %if.end37

if.end37:                                         ; preds = %do.end36, %do.body28
  br label %do.end38

do.end38:                                         ; preds = %if.end37, %if.then
  ret void
}