; Function Attrs: mustprogress nounwind uwtable
define dso_local void @_ZN4node6crypto7NodeBIO5ResetEv(ptr nocapture noundef nonnull align 8 dereferenceable(64) %this) local_unnamed_addr #3 align 2 {
entry:
  %read_head_ = getelementptr inbounds i8, ptr %this, i64 48
  %0 = load ptr, ptr %read_head_, align 8
  %cmp = icmp eq ptr %0, null
  br i1 %cmp, label %do.end38, label %while.cond.preheader

while.cond.preheader:                             ; preds = %entry
  %read_pos_3 = getelementptr inbounds i8, ptr %0, i64 8
  %1 = load i64, ptr %read_pos_3, align 8
  %write_pos_4 = getelementptr inbounds i8, ptr %0, i64 16
  %2 = load i64, ptr %write_pos_4, align 8
  %cmp4.not5 = icmp eq i64 %1, %2
  br i1 %cmp4.not5, label %while.end, label %do.body.lr.ph

do.body.lr.ph:                                    ; preds = %while.cond.preheader
  %length_ = getelementptr inbounds i8, ptr %this, i64 24
  br label %do.body

do.body:                                          ; preds = %do.body.lr.ph, %do.end15
  %3 = phi i64 [ %2, %do.body.lr.ph ], [ %10, %do.end15 ]
  %write_pos_6 = phi ptr [ %write_pos_4, %do.body.lr.ph ], [ %write_pos_, %do.end15 ]
  %4 = phi i64 [ %1, %do.body.lr.ph ], [ %9, %do.end15 ]
  %cmp9.not = icmp ugt i64 %3, %4
  br i1 %cmp9.not, label %do.end15, label %do.body13

do.body13:                                        ; preds = %do.body
  tail call void @_ZN4node6AssertERKNS_13AssertionInfoE(ptr noundef nonnull align 8 dereferenceable(24) @_ZZN4node6crypto7NodeBIO5ResetEvE4args) #16
  tail call void @abort() #17
  unreachable

do.end15:                                         ; preds = %do.body
  %sub.neg = sub i64 %4, %3
  %5 = load i64, ptr %length_, align 8
  %sub20 = add i64 %sub.neg, %5
  store i64 %sub20, ptr %length_, align 8
  store i64 0, ptr %write_pos_6, align 8
  %6 = load ptr, ptr %read_head_, align 8
  %read_pos_24 = getelementptr inbounds i8, ptr %6, i64 8
  store i64 0, ptr %read_pos_24, align 8
  %7 = load ptr, ptr %read_head_, align 8
  %next_ = getelementptr inbounds i8, ptr %7, i64 32
  %8 = load ptr, ptr %next_, align 8
  store ptr %8, ptr %read_head_, align 8
  %read_pos_ = getelementptr inbounds i8, ptr %8, i64 8
  %9 = load i64, ptr %read_pos_, align 8
  %write_pos_ = getelementptr inbounds i8, ptr %8, i64 16
  %10 = load i64, ptr %write_pos_, align 8
  %cmp4.not = icmp eq i64 %9, %10
  br i1 %cmp4.not, label %while.end, label %do.body, !llvm.loop !12

while.end:                                        ; preds = %do.end15, %while.cond.preheader
  %.lcssa = phi ptr [ %0, %while.cond.preheader ], [ %8, %do.end15 ]
  %write_head_ = getelementptr inbounds i8, ptr %this, i64 56
  store ptr %.lcssa, ptr %write_head_, align 8
  %length_29 = getelementptr inbounds i8, ptr %this, i64 24
  %11 = load i64, ptr %length_29, align 8
  %cmp30.not = icmp eq i64 %11, 0
  br i1 %cmp30.not, label %do.end38, label %do.body35

do.body35:                                        ; preds = %while.end
  tail call void @_ZN4node6AssertERKNS_13AssertionInfoE(ptr noundef nonnull align 8 dereferenceable(24) @_ZZN4node6crypto7NodeBIO5ResetEvE4args_0) #16
  tail call void @abort() #17
  unreachable

do.end38:                                         ; preds = %while.end, %entry
  ret void
}